; ModuleID = '60/515.c'
source_filename = "60/515.c"
target datalayout = "e-m:e-p270:32:32-p271:32:32-p272:64:64-i64:64-f80:128-n8:16:32:64-S128"
target triple = "x86_64-pc-linux-gnu"

@.str = private unnamed_addr constant [3 x i8] c"%d\00", align 1
@.str.1 = private unnamed_addr constant [7 x i8] c"%d %d\0A\00", align 1
@.str.2 = private unnamed_addr constant [7 x i8] c"empty\0A\00", align 1

; Function Attrs: noinline nounwind uwtable
define dso_local void @main() #0 {
  %1 = alloca i32, align 4
  %2 = alloca i32, align 4
  %3 = alloca i32, align 4
  %4 = alloca i32, align 4
  %5 = alloca i32, align 4
  store i32 0, i32* %5, align 4
  %6 = call i32 (i8*, ...) @__isoc99_scanf(i8* getelementptr inbounds ([3 x i8], [3 x i8]* @.str, i64 0, i64 0), i32* %1)
  store i32 2, i32* %2, align 4
  br label %7

7:                                                ; preds = %68, %0
  %8 = load i32, i32* %2, align 4
  %9 = load i32, i32* %1, align 4
  %10 = sub nsw i32 %9, 2
  %11 = icmp sle i32 %8, %10
  br i1 %11, label %12, label %71

12:                                               ; preds = %7
  store i32 0, i32* %4, align 4
  store i32 2, i32* %3, align 4
  br label %13

13:                                               ; preds = %28, %12
  %14 = load i32, i32* %3, align 4
  %15 = sub nsw i32 %14, 1
  %16 = load i32, i32* %3, align 4
  %17 = sub nsw i32 %16, 1
  %18 = mul nsw i32 %15, %17
  %19 = load i32, i32* %2, align 4
  %20 = icmp sle i32 %18, %19
  br i1 %20, label %21, label %31

21:                                               ; preds = %13
  %22 = load i32, i32* %2, align 4
  %23 = load i32, i32* %3, align 4
  %24 = srem i32 %22, %23
  %25 = icmp eq i32 %24, 0
  br i1 %25, label %26, label %27

26:                                               ; preds = %21
  store i32 1, i32* %4, align 4
  br label %31

27:                                               ; preds = %21
  br label %28

28:                                               ; preds = %27
  %29 = load i32, i32* %3, align 4
  %30 = add nsw i32 %29, 1
  store i32 %30, i32* %3, align 4
  br label %13

31:                                               ; preds = %26, %13
  %32 = load i32, i32* %4, align 4
  %33 = icmp eq i32 %32, 1
  br i1 %33, label %34, label %35

34:                                               ; preds = %31
  br label %68

35:                                               ; preds = %31
  %36 = load i32, i32* %2, align 4
  %37 = add nsw i32 %36, 2
  store i32 %37, i32* %2, align 4
  store i32 0, i32* %4, align 4
  store i32 2, i32* %3, align 4
  br label %38

38:                                               ; preds = %53, %35
  %39 = load i32, i32* %3, align 4
  %40 = sub nsw i32 %39, 1
  %41 = load i32, i32* %3, align 4
  %42 = sub nsw i32 %41, 1
  %43 = mul nsw i32 %40, %42
  %44 = load i32, i32* %2, align 4
  %45 = icmp sle i32 %43, %44
  br i1 %45, label %46, label %56

46:                                               ; preds = %38
  %47 = load i32, i32* %2, align 4
  %48 = load i32, i32* %3, align 4
  %49 = srem i32 %47, %48
  %50 = icmp eq i32 %49, 0
  br i1 %50, label %51, label %52

51:                                               ; preds = %46
  store i32 1, i32* %4, align 4
  br label %56

52:                                               ; preds = %46
  br label %53

53:                                               ; preds = %52
  %54 = load i32, i32* %3, align 4
  %55 = add nsw i32 %54, 1
  store i32 %55, i32* %3, align 4
  br label %38

56:                                               ; preds = %51, %38
  %57 = load i32, i32* %4, align 4
  %58 = icmp eq i32 %57, 0
  br i1 %58, label %59, label %64

59:                                               ; preds = %56
  %60 = load i32, i32* %2, align 4
  %61 = sub nsw i32 %60, 2
  %62 = load i32, i32* %2, align 4
  %63 = call i32 (i8*, ...) @printf(i8* getelementptr inbounds ([7 x i8], [7 x i8]* @.str.1, i64 0, i64 0), i32 %61, i32 %62)
  store i32 1, i32* %5, align 4
  br label %64

64:                                               ; preds = %59, %56
  br label %65

65:                                               ; preds = %64
  %66 = load i32, i32* %2, align 4
  %67 = sub nsw i32 %66, 2
  store i32 %67, i32* %2, align 4
  br label %68

68:                                               ; preds = %65, %34
  %69 = load i32, i32* %2, align 4
  %70 = add nsw i32 %69, 1
  store i32 %70, i32* %2, align 4
  br label %7

71:                                               ; preds = %7
  %72 = load i32, i32* %5, align 4
  %73 = icmp eq i32 %72, 0
  br i1 %73, label %74, label %76

74:                                               ; preds = %71
  %75 = call i32 (i8*, ...) @printf(i8* getelementptr inbounds ([7 x i8], [7 x i8]* @.str.2, i64 0, i64 0))
  br label %76

76:                                               ; preds = %74, %71
  ret void
}

declare dso_local i32 @__isoc99_scanf(i8*, ...) #1

declare dso_local i32 @printf(i8*, ...) #1


!llvm.module.flags = !{!0}
!llvm.ident = !{!1}

!0 = !{i32 1, !"wchar_size", i32 4}
!1 = !{!"clang version 10.0.0-4ubuntu1 "}
