; ModuleID = 'source-C-CXX/59/515.c'
source_filename = "source-C-CXX/59/515.c"
target datalayout = "e-m:e-p270:32:32-p271:32:32-p272:64:64-i64:64-f80:128-n8:16:32:64-S128"
target triple = "x86_64-pc-linux-gnu"

@.str = private unnamed_addr constant [3 x i8] c"%d\00", align 1
@.str.1 = private unnamed_addr constant [7 x i8] c"%d %d\0A\00", align 1
@str = private unnamed_addr constant [6 x i8] c"empty\00", align 1

; Function Attrs: nofree nounwind sspstrong uwtable
define dso_local void @main() local_unnamed_addr #0 {
  %1 = alloca i32, align 4
  %2 = bitcast i32* %1 to i8*
  call void @llvm.lifetime.start.p0i8(i64 4, i8* nonnull %2) #4
  %3 = call i32 (i8*, ...) @__isoc99_scanf(i8* getelementptr inbounds ([3 x i8], [3 x i8]* @.str, i64 0, i64 0), i32* nonnull %1)
  %4 = load i32, i32* %1, align 4, !tbaa !5
  %5 = icmp slt i32 %4, 4
  br i1 %5, label %39, label %6

6:                                                ; preds = %0, %31
  %7 = phi i32 [ %32, %31 ], [ %4, %0 ]
  %8 = phi i32 [ %33, %31 ], [ 0, %0 ]
  %9 = phi i32 [ %34, %31 ], [ 2, %0 ]
  br label %14

10:                                               ; preds = %14
  %11 = add nuw nsw i32 %15, 1
  %12 = mul nsw i32 %15, %15
  %13 = icmp ugt i32 %12, %9
  br i1 %13, label %18, label %14, !llvm.loop !9

14:                                               ; preds = %6, %10
  %15 = phi i32 [ 2, %6 ], [ %11, %10 ]
  %16 = urem i32 %9, %15
  %17 = icmp eq i32 %16, 0
  br i1 %17, label %31, label %10

18:                                               ; preds = %10
  %19 = add nuw nsw i32 %9, 2
  br label %24

20:                                               ; preds = %24
  %21 = add nuw nsw i32 %25, 1
  %22 = mul nsw i32 %25, %25
  %23 = icmp ugt i32 %22, %19
  br i1 %23, label %28, label %24, !llvm.loop !11

24:                                               ; preds = %18, %20
  %25 = phi i32 [ 2, %18 ], [ %21, %20 ]
  %26 = urem i32 %19, %25
  %27 = icmp eq i32 %26, 0
  br i1 %27, label %31, label %20

28:                                               ; preds = %20
  %29 = call i32 (i8*, ...) @printf(i8* nonnull dereferenceable(1) getelementptr inbounds ([7 x i8], [7 x i8]* @.str.1, i64 0, i64 0), i32 %9, i32 %19)
  %30 = load i32, i32* %1, align 4, !tbaa !5
  br label %31

31:                                               ; preds = %14, %24, %28
  %32 = phi i32 [ %30, %28 ], [ %7, %24 ], [ %7, %14 ]
  %33 = phi i32 [ 1, %28 ], [ %8, %24 ], [ %8, %14 ]
  %34 = add nuw nsw i32 %9, 1
  %35 = add nsw i32 %32, -2
  %36 = icmp slt i32 %9, %35
  br i1 %36, label %6, label %37, !llvm.loop !12

37:                                               ; preds = %31
  %38 = icmp eq i32 %33, 0
  br i1 %38, label %39, label %41

39:                                               ; preds = %0, %37
  %40 = call i32 @puts(i8* nonnull dereferenceable(1) getelementptr inbounds ([6 x i8], [6 x i8]* @str, i64 0, i64 0))
  br label %41

41:                                               ; preds = %39, %37
  call void @llvm.lifetime.end.p0i8(i64 4, i8* nonnull %2) #4
  ret void
}

; Function Attrs: argmemonly mustprogress nofree nosync nounwind willreturn
declare void @llvm.lifetime.start.p0i8(i64 immarg, i8* nocapture) #1

; Function Attrs: nofree nounwind
declare noundef i32 @__isoc99_scanf(i8* nocapture noundef readonly, ...) local_unnamed_addr #2

; Function Attrs: nofree nounwind
declare noundef i32 @printf(i8* nocapture noundef readonly, ...) local_unnamed_addr #2

; Function Attrs: argmemonly mustprogress nofree nosync nounwind willreturn
declare void @llvm.lifetime.end.p0i8(i64 immarg, i8* nocapture) #1

; Function Attrs: nofree nounwind
declare noundef i32 @puts(i8* nocapture noundef readonly) local_unnamed_addr #3


!llvm.module.flags = !{!0, !1, !2, !3}
!llvm.ident = !{!4}

!0 = !{i32 1, !"wchar_size", i32 4}
!1 = !{i32 7, !"PIC Level", i32 2}
!2 = !{i32 7, !"PIE Level", i32 2}
!3 = !{i32 7, !"uwtable", i32 1}
!4 = !{!"clang version 13.0.0"}
!5 = !{!6, !6, i64 0}
!6 = !{!"int", !7, i64 0}
!7 = !{!"omnipotent char", !8, i64 0}
!8 = !{!"Simple C/C++ TBAA"}
!9 = distinct !{!9, !10}
!10 = !{!"llvm.loop.mustprogress"}
!11 = distinct !{!11, !10}
!12 = distinct !{!12, !10}
